target datalayout = "e-m:e-p270:32:32-p271:32:32-p272:64:64-i64:64-i128:128-f80:128-n8:16:32:64-S128"
target triple = "x86_64-pc-linux-gnu"

%struct.XIMCallback = type { ptr, ptr }

@X11im = internal global ptr null, align 8
@.str.13 = private unnamed_addr constant [16 x i8] c"destroyCallback\00", align 1

; Function Attrs: nounwind uwtable
define internal void @OpenXIMCallback(ptr noundef %0, ptr noundef %1, ptr noundef %2) #0 {
  %4 = alloca ptr, align 8
  %5 = alloca ptr, align 8
  %6 = alloca ptr, align 8
  %7 = alloca %struct.XIMCallback, align 8
  store ptr %0, ptr %4, align 8
  store ptr %1, ptr %5, align 8
  store ptr %2, ptr %6, align 8
  %8 = load ptr, ptr %4, align 8
  %9 = call ptr @XOpenIM(ptr noundef %8, ptr noundef null, ptr noundef null, ptr noundef null)
  store ptr %9, ptr @X11im, align 8
  %10 = load ptr, ptr @X11im, align 8
  %11 = icmp eq ptr %10, null
  br i1 %11, label %12, label %13

12:                                               ; preds = %3
  br label %18

13:                                               ; preds = %3
  %14 = getelementptr inbounds %struct.XIMCallback, ptr %7, i32 0, i32 1
  store ptr @DestroyXIMCallback, ptr %14, align 8
  %15 = getelementptr inbounds %struct.XIMCallback, ptr %7, i32 0, i32 0
  store ptr null, ptr %15, align 8
  %16 = load ptr, ptr @X11im, align 8
  %17 = call ptr (ptr, ...) @XSetIMValues(ptr noundef %16, ptr noundef @.str.13, ptr noundef %7, ptr noundef null)
  br label %18

18:                                               ; preds = %13, %12
  ret void
}