; Function Attrs: nounwind uwtable
define internal void @OpenXIMCallback(ptr noundef %0, ptr nocapture readnone %1, ptr nocapture readnone %2) #2 {
  %4 = alloca %struct.XIMCallback, align 8
  %5 = tail call ptr @XOpenIM(ptr noundef %0, ptr noundef null, ptr noundef null, ptr noundef null) #14
  store ptr %5, ptr @X11im, align 8
  %6 = icmp eq ptr %5, null
  br i1 %6, label %10, label %7

7:                                                ; preds = %3
  %8 = getelementptr inbounds i8, ptr %4, i64 8
  store ptr @DestroyXIMCallback, ptr %8, align 8
  store ptr null, ptr %4, align 8
  %9 = call ptr (ptr, ...) @XSetIMValues(ptr noundef nonnull %5, ptr noundef nonnull @.str.13, ptr noundef nonnull %4, ptr noundef null) #14
  br label %10

10:                                               ; preds = %3, %7
  ret void
}